target datalayout = "e-m:e-p270:32:32-p271:32:32-p272:64:64-i64:64-i128:128-f80:128-n8:16:32:64-S128"
target triple = "x86_64-pc-linux-gnu"

%struct.MetadataContext = type { ptr, i32, ptr, ptr, i32, ptr, ptr, [4 x double], ptr, ptr, ptr, ptr, i32 }

@.str.53 = private unnamed_addr constant [4 x i8] c"%lf\00", align 1

; Function Attrs: nounwind uwtable
define internal i32 @parse_expr(ptr noundef %0, ptr noundef %1, ptr noundef %2) #1 {
  %4 = alloca i32, align 4
  %5 = alloca ptr, align 8
  %6 = alloca ptr, align 8
  %7 = alloca ptr, align 8
  %8 = alloca double, align 8
  %9 = alloca double, align 8
  %10 = alloca i32, align 4
  store ptr %0, ptr %5, align 8, !tbaa !22
  store ptr %1, ptr %6, align 8, !tbaa !74
  store ptr %2, ptr %7, align 8, !tbaa !74
  call void @llvm.lifetime.start.p0(i64 8, ptr %8) #11
  call void @llvm.lifetime.start.p0(i64 8, ptr %9) #11
  %11 = load ptr, ptr %6, align 8, !tbaa !74
  %12 = call i32 (ptr, ptr, ...) @__isoc99_sscanf(ptr noundef %11, ptr noundef @.str.53, ptr noundef %8) #11
  %13 = load ptr, ptr %7, align 8, !tbaa !74
  %14 = call i32 (ptr, ptr, ...) @__isoc99_sscanf(ptr noundef %13, ptr noundef @.str.53, ptr noundef %9) #11
  %15 = add nsw i32 %12, %14
  %16 = icmp ne i32 %15, 2
  br i1 %16, label %17, label %18

17:                                               ; preds = %3
  store i32 0, ptr %4, align 4
  store i32 1, ptr %10, align 4
  br label %41

18:                                               ; preds = %3
  %19 = load double, ptr %8, align 8, !tbaa !80
  %20 = load ptr, ptr %5, align 8, !tbaa !22
  %21 = getelementptr inbounds nuw %struct.MetadataContext, ptr %20, i32 0, i32 7
  %22 = getelementptr inbounds [4 x double], ptr %21, i64 0, i64 2
  store double %19, ptr %22, align 8, !tbaa !80
  %23 = load ptr, ptr %5, align 8, !tbaa !22
  %24 = getelementptr inbounds nuw %struct.MetadataContext, ptr %23, i32 0, i32 7
  %25 = getelementptr inbounds [4 x double], ptr %24, i64 0, i64 0
  store double %19, ptr %25, align 8, !tbaa !80
  %26 = load double, ptr %9, align 8, !tbaa !80
  %27 = load ptr, ptr %5, align 8, !tbaa !22
  %28 = getelementptr inbounds nuw %struct.MetadataContext, ptr %27, i32 0, i32 7
  %29 = getelementptr inbounds [4 x double], ptr %28, i64 0, i64 3
  store double %26, ptr %29, align 8, !tbaa !80
  %30 = load ptr, ptr %5, align 8, !tbaa !22
  %31 = getelementptr inbounds nuw %struct.MetadataContext, ptr %30, i32 0, i32 7
  %32 = getelementptr inbounds [4 x double], ptr %31, i64 0, i64 1
  store double %26, ptr %32, align 8, !tbaa !80
  %33 = load ptr, ptr %5, align 8, !tbaa !22
  %34 = getelementptr inbounds nuw %struct.MetadataContext, ptr %33, i32 0, i32 6
  %35 = load ptr, ptr %34, align 8, !tbaa !41
  %36 = load ptr, ptr %5, align 8, !tbaa !22
  %37 = getelementptr inbounds nuw %struct.MetadataContext, ptr %36, i32 0, i32 7
  %38 = getelementptr inbounds [4 x double], ptr %37, i64 0, i64 0
  %39 = call nsz double @av_expr_eval(ptr noundef %35, ptr noundef %38, ptr noundef null)
  %40 = fptosi double %39 to i32
  store i32 %40, ptr %4, align 4
  store i32 1, ptr %10, align 4
  br label %41

41:                                               ; preds = %18, %17
  call void @llvm.lifetime.end.p0(i64 8, ptr %9) #11
  call void @llvm.lifetime.end.p0(i64 8, ptr %8) #11
  %42 = load i32, ptr %4, align 4
  ret i32 %42
}