; Function Attrs: nounwind uwtable
define internal i32 @parse_expr(ptr noundef %0, ptr noundef readonly captures(none) %1, ptr noundef readonly captures(none) %2) #1 {
  %4 = alloca double, align 8
  %5 = alloca double, align 8
  call void @llvm.lifetime.start.p0(i64 8, ptr nonnull %4) #14
  call void @llvm.lifetime.start.p0(i64 8, ptr nonnull %5) #14
  %6 = call i32 (ptr, ptr, ...) @__isoc99_sscanf(ptr noundef %1, ptr noundef nonnull @.str.53, ptr noundef nonnull %4) #14
  %7 = call i32 (ptr, ptr, ...) @__isoc99_sscanf(ptr noundef %2, ptr noundef nonnull @.str.53, ptr noundef nonnull %5) #14
  %8 = add nsw i32 %7, %6
  %.not = icmp eq i32 %8, 2
  br i1 %.not, label %9, label %20

9:                                                ; preds = %3
  %10 = load double, ptr %4, align 8, !tbaa !66
  %11 = getelementptr inbounds nuw i8, ptr %0, i64 56
  %12 = getelementptr inbounds nuw i8, ptr %0, i64 72
  store double %10, ptr %12, align 8, !tbaa !66
  store double %10, ptr %11, align 8, !tbaa !66
  %13 = load double, ptr %5, align 8, !tbaa !66
  %14 = getelementptr inbounds nuw i8, ptr %0, i64 80
  store double %13, ptr %14, align 8, !tbaa !66
  %15 = getelementptr inbounds nuw i8, ptr %0, i64 64
  store double %13, ptr %15, align 8, !tbaa !66
  %16 = getelementptr inbounds nuw i8, ptr %0, i64 48
  %17 = load ptr, ptr %16, align 8, !tbaa !36
  %18 = call nsz double @av_expr_eval(ptr noundef %17, ptr noundef nonnull %11, ptr noundef null) #14
  %19 = fptosi double %18 to i32
  br label %20

20:                                               ; preds = %3, %9
  %.0 = phi i32 [ %19, %9 ], [ 0, %3 ]
  call void @llvm.lifetime.end.p0(i64 8, ptr nonnull %5) #14
  call void @llvm.lifetime.end.p0(i64 8, ptr nonnull %4) #14
  ret i32 %.0
}